target datalayout = "e-m:e-p270:32:32-p271:32:32-p272:64:64-i64:64-i128:128-f80:128-n8:16:32:64-S128"
target triple = "x86_64-pc-linux-gnu"

%struct.bn_mont_ctx_st = type { i32, %struct.bignum_st, %struct.bignum_st, %struct.bignum_st, [2 x i64], i32 }
%struct.bignum_st = type { ptr, i32, i32, i32, i32 }

@.str = private unnamed_addr constant [31 x i8] c"../openssl/crypto/bn/bn_mont.c\00", align 1

; Function Attrs: nounwind uwtable
define void @BN_MONT_CTX_init(ptr noundef %0) #0 {
  %2 = alloca ptr, align 8
  store ptr %0, ptr %2, align 8, !tbaa !8
  %3 = load ptr, ptr %2, align 8, !tbaa !8
  %4 = getelementptr inbounds nuw %struct.bn_mont_ctx_st, ptr %3, i32 0, i32 0
  store i32 0, ptr %4, align 8, !tbaa !31
  %5 = load ptr, ptr %2, align 8, !tbaa !8
  %6 = getelementptr inbounds nuw %struct.bn_mont_ctx_st, ptr %5, i32 0, i32 1
  call void @bn_init(ptr noundef %6)
  %7 = load ptr, ptr %2, align 8, !tbaa !8
  %8 = getelementptr inbounds nuw %struct.bn_mont_ctx_st, ptr %7, i32 0, i32 2
  call void @bn_init(ptr noundef %8)
  %9 = load ptr, ptr %2, align 8, !tbaa !8
  %10 = getelementptr inbounds nuw %struct.bn_mont_ctx_st, ptr %9, i32 0, i32 3
  call void @bn_init(ptr noundef %10)
  %11 = load ptr, ptr %2, align 8, !tbaa !8
  %12 = getelementptr inbounds nuw %struct.bn_mont_ctx_st, ptr %11, i32 0, i32 4
  %13 = getelementptr inbounds [2 x i64], ptr %12, i64 0, i64 1
  store i64 0, ptr %13, align 8, !tbaa !24
  %14 = load ptr, ptr %2, align 8, !tbaa !8
  %15 = getelementptr inbounds nuw %struct.bn_mont_ctx_st, ptr %14, i32 0, i32 4
  %16 = getelementptr inbounds [2 x i64], ptr %15, i64 0, i64 0
  store i64 0, ptr %16, align 8, !tbaa !24
  %17 = load ptr, ptr %2, align 8, !tbaa !8
  %18 = getelementptr inbounds nuw %struct.bn_mont_ctx_st, ptr %17, i32 0, i32 5
  store i32 0, ptr %18, align 8, !tbaa !30
  ret void
}

; Function Attrs: nounwind uwtable
define ptr @BN_MONT_CTX_new() #0 {
  %1 = alloca ptr, align 8
  %2 = alloca ptr, align 8
  %3 = alloca i32, align 4
  call void @llvm.lifetime.start.p0(i64 8, ptr %2) #3
  %4 = call noalias ptr @CRYPTO_malloc(i64 noundef 104, ptr noundef @.str, i32 noundef 232)
  store ptr %4, ptr %2, align 8, !tbaa !8
  %5 = icmp eq ptr %4, null
  br i1 %5, label %6, label %7

6:                                                ; preds = %0
  store ptr null, ptr %1, align 8
  store i32 1, ptr %3, align 4
  br label %12

7:                                                ; preds = %0
  %8 = load ptr, ptr %2, align 8, !tbaa !8
  call void @BN_MONT_CTX_init(ptr noundef %8)
  %9 = load ptr, ptr %2, align 8, !tbaa !8
  %10 = getelementptr inbounds nuw %struct.bn_mont_ctx_st, ptr %9, i32 0, i32 5
  store i32 1, ptr %10, align 8, !tbaa !30
  %11 = load ptr, ptr %2, align 8, !tbaa !8
  store ptr %11, ptr %1, align 8
  store i32 1, ptr %3, align 4
  br label %12

12:                                               ; preds = %7, %6
  call void @llvm.lifetime.end.p0(i64 8, ptr %2) #3
  %13 = load ptr, ptr %1, align 8
  ret ptr %13
}