; Function Attrs: nounwind uwtable
define ptr @BN_MONT_CTX_new() local_unnamed_addr #0 {
  %1 = tail call noalias ptr @CRYPTO_malloc(i64 noundef 104, ptr noundef nonnull @.str, i32 noundef 232) #5
  %2 = icmp eq ptr %1, null
  br i1 %2, label %9, label %3

3:                                                ; preds = %0
  store i32 0, ptr %1, align 8, !tbaa !21
  %4 = getelementptr inbounds nuw i8, ptr %1, i64 8
  tail call void @bn_init(ptr noundef nonnull %4) #5
  %5 = getelementptr inbounds nuw i8, ptr %1, i64 32
  tail call void @bn_init(ptr noundef nonnull %5) #5
  %6 = getelementptr inbounds nuw i8, ptr %1, i64 56
  tail call void @bn_init(ptr noundef nonnull %6) #5
  %7 = getelementptr inbounds nuw i8, ptr %1, i64 80
  tail call void @llvm.memset.p0.i64(ptr noundef nonnull align 8 dereferenceable(20) %7, i8 0, i64 16, i1 false)
  %8 = getelementptr inbounds nuw i8, ptr %1, i64 96
  store i32 1, ptr %8, align 8, !tbaa !22
  br label %9

9:                                                ; preds = %0, %3
  ret ptr %1
}